(dp0
S'uhd'
p1
(dp2
S'source'
p3
S'git://https://github.com/EttusResearch/uhd.git'
p4
sS'state'
p5
S'installed'
p6
sS'version'
p7
S'42a3eeb62e07034873f823048cebcaff772da4c3'
p8
ssS'apache-thrift'
p9
(dp10
S'source'
p11
S'git://https://github.com/apache/thrift.git'
p12
sS'state'
p13
S'make'
p14
sS'version'
p15
S'dd89dce84b73ca671c8e0b3cf597f1888e2a75dc'
p16
ss.